; ModuleID = '64/1621.c'
source_filename = "64/1621.c"
target datalayout = "e-m:e-p270:32:32-p271:32:32-p272:64:64-i64:64-f80:128-n8:16:32:64-S128"
target triple = "x86_64-pc-linux-gnu"

@.str = private unnamed_addr constant [3 x i8] c"%d\00", align 1
@.str.1 = private unnamed_addr constant [7 x i8] c"%d%d%d\00", align 1
@x = common dso_local global [20 x i32] zeroinitializer, align 16
@y = common dso_local global [20 x i32] zeroinitializer, align 16
@z = common dso_local global [20 x i32] zeroinitializer, align 16
@p = common dso_local global [1100 x i32] zeroinitializer, align 16
@.str.2 = private unnamed_addr constant [29 x i8] c"(%d,%d,%d)-(%d,%d,%d)=%.2lf\0A\00", align 1

; Function Attrs: noinline nounwind uwtable
define dso_local i32 @main() #0 {
  %1 = alloca i32, align 4
  %2 = alloca i32, align 4
  %3 = alloca i32, align 4
  %4 = alloca i32, align 4
  %5 = alloca i32, align 4
  store i32 0, i32* %1, align 4
  store i32 0, i32* %5, align 4
  %6 = call i32 (i8*, ...) @__isoc99_scanf(i8* getelementptr inbounds ([3 x i8], [3 x i8]* @.str, i64 0, i64 0), i32* %3)
  %7 = load i32, i32* %3, align 4
  %8 = sub nsw i32 %7, 1
  store i32 %8, i32* %2, align 4
  br label %9

9:                                                ; preds = %104, %0
  %10 = load i32, i32* %2, align 4
  %11 = icmp sge i32 %10, 0
  br i1 %11, label %12, label %107

12:                                               ; preds = %9
  %13 = load i32, i32* %2, align 4
  %14 = sext i32 %13 to i64
  %15 = getelementptr inbounds [20 x i32], [20 x i32]* @x, i64 0, i64 %14
  %16 = load i32, i32* %2, align 4
  %17 = sext i32 %16 to i64
  %18 = getelementptr inbounds [20 x i32], [20 x i32]* @y, i64 0, i64 %17
  %19 = load i32, i32* %2, align 4
  %20 = sext i32 %19 to i64
  %21 = getelementptr inbounds [20 x i32], [20 x i32]* @z, i64 0, i64 %20
  %22 = call i32 (i8*, ...) @__isoc99_scanf(i8* getelementptr inbounds ([7 x i8], [7 x i8]* @.str.1, i64 0, i64 0), i32* %15, i32* %18, i32* %21)
  %23 = load i32, i32* %3, align 4
  %24 = sub nsw i32 %23, 1
  store i32 %24, i32* %4, align 4
  br label %25

25:                                               ; preds = %98, %12
  %26 = load i32, i32* %4, align 4
  %27 = load i32, i32* %2, align 4
  %28 = icmp sgt i32 %26, %27
  br i1 %28, label %29, label %103

29:                                               ; preds = %25
  %30 = load i32, i32* %2, align 4
  %31 = sext i32 %30 to i64
  %32 = getelementptr inbounds [20 x i32], [20 x i32]* @x, i64 0, i64 %31
  %33 = load i32, i32* %32, align 4
  %34 = load i32, i32* %4, align 4
  %35 = sext i32 %34 to i64
  %36 = getelementptr inbounds [20 x i32], [20 x i32]* @x, i64 0, i64 %35
  %37 = load i32, i32* %36, align 4
  %38 = sub nsw i32 %33, %37
  %39 = load i32, i32* %2, align 4
  %40 = sext i32 %39 to i64
  %41 = getelementptr inbounds [20 x i32], [20 x i32]* @x, i64 0, i64 %40
  %42 = load i32, i32* %41, align 4
  %43 = load i32, i32* %4, align 4
  %44 = sext i32 %43 to i64
  %45 = getelementptr inbounds [20 x i32], [20 x i32]* @x, i64 0, i64 %44
  %46 = load i32, i32* %45, align 4
  %47 = sub nsw i32 %42, %46
  %48 = mul nsw i32 %38, %47
  %49 = load i32, i32* %2, align 4
  %50 = sext i32 %49 to i64
  %51 = getelementptr inbounds [20 x i32], [20 x i32]* @y, i64 0, i64 %50
  %52 = load i32, i32* %51, align 4
  %53 = load i32, i32* %4, align 4
  %54 = sext i32 %53 to i64
  %55 = getelementptr inbounds [20 x i32], [20 x i32]* @y, i64 0, i64 %54
  %56 = load i32, i32* %55, align 4
  %57 = sub nsw i32 %52, %56
  %58 = load i32, i32* %2, align 4
  %59 = sext i32 %58 to i64
  %60 = getelementptr inbounds [20 x i32], [20 x i32]* @y, i64 0, i64 %59
  %61 = load i32, i32* %60, align 4
  %62 = load i32, i32* %4, align 4
  %63 = sext i32 %62 to i64
  %64 = getelementptr inbounds [20 x i32], [20 x i32]* @y, i64 0, i64 %63
  %65 = load i32, i32* %64, align 4
  %66 = sub nsw i32 %61, %65
  %67 = mul nsw i32 %57, %66
  %68 = add nsw i32 %48, %67
  %69 = load i32, i32* %2, align 4
  %70 = sext i32 %69 to i64
  %71 = getelementptr inbounds [20 x i32], [20 x i32]* @z, i64 0, i64 %70
  %72 = load i32, i32* %71, align 4
  %73 = load i32, i32* %4, align 4
  %74 = sext i32 %73 to i64
  %75 = getelementptr inbounds [20 x i32], [20 x i32]* @z, i64 0, i64 %74
  %76 = load i32, i32* %75, align 4
  %77 = sub nsw i32 %72, %76
  %78 = load i32, i32* %2, align 4
  %79 = sext i32 %78 to i64
  %80 = getelementptr inbounds [20 x i32], [20 x i32]* @z, i64 0, i64 %79
  %81 = load i32, i32* %80, align 4
  %82 = load i32, i32* %4, align 4
  %83 = sext i32 %82 to i64
  %84 = getelementptr inbounds [20 x i32], [20 x i32]* @z, i64 0, i64 %83
  %85 = load i32, i32* %84, align 4
  %86 = sub nsw i32 %81, %85
  %87 = mul nsw i32 %77, %86
  %88 = add nsw i32 %68, %87
  %89 = mul nsw i32 %88, 1000
  %90 = load i32, i32* %2, align 4
  %91 = mul nsw i32 %90, 20
  %92 = add nsw i32 %89, %91
  %93 = load i32, i32* %4, align 4
  %94 = add nsw i32 %92, %93
  %95 = load i32, i32* %5, align 4
  %96 = sext i32 %95 to i64
  %97 = getelementptr inbounds [1100 x i32], [1100 x i32]* @p, i64 0, i64 %96
  store i32 %94, i32* %97, align 4
  br label %98

98:                                               ; preds = %29
  %99 = load i32, i32* %4, align 4
  %100 = add nsw i32 %99, -1
  store i32 %100, i32* %4, align 4
  %101 = load i32, i32* %5, align 4
  %102 = add nsw i32 %101, 1
  store i32 %102, i32* %5, align 4
  br label %25

103:                                              ; preds = %25
  br label %104

104:                                              ; preds = %103
  %105 = load i32, i32* %2, align 4
  %106 = add nsw i32 %105, -1
  store i32 %106, i32* %2, align 4
  br label %9

107:                                              ; preds = %9
  store i32 0, i32* %2, align 4
  br label %108

108:                                              ; preds = %209, %107
  %109 = load i32, i32* %2, align 4
  %110 = load i32, i32* %5, align 4
  %111 = icmp slt i32 %109, %110
  br i1 %111, label %112, label %212

112:                                              ; preds = %108
  %113 = load i32, i32* %2, align 4
  %114 = add nsw i32 %113, 1
  store i32 %114, i32* %4, align 4
  br label %115

115:                                              ; preds = %146, %112
  %116 = load i32, i32* %4, align 4
  %117 = load i32, i32* %5, align 4
  %118 = icmp slt i32 %116, %117
  br i1 %118, label %119, label %149

119:                                              ; preds = %115
  %120 = load i32, i32* %2, align 4
  %121 = sext i32 %120 to i64
  %122 = getelementptr inbounds [1100 x i32], [1100 x i32]* @p, i64 0, i64 %121
  %123 = load i32, i32* %122, align 4
  %124 = load i32, i32* %4, align 4
  %125 = sext i32 %124 to i64
  %126 = getelementptr inbounds [1100 x i32], [1100 x i32]* @p, i64 0, i64 %125
  %127 = load i32, i32* %126, align 4
  %128 = icmp slt i32 %123, %127
  br i1 %128, label %129, label %145

129:                                              ; preds = %119
  %130 = load i32, i32* %2, align 4
  %131 = sext i32 %130 to i64
  %132 = getelementptr inbounds [1100 x i32], [1100 x i32]* @p, i64 0, i64 %131
  %133 = load i32, i32* %132, align 4
  store i32 %133, i32* %3, align 4
  %134 = load i32, i32* %4, align 4
  %135 = sext i32 %134 to i64
  %136 = getelementptr inbounds [1100 x i32], [1100 x i32]* @p, i64 0, i64 %135
  %137 = load i32, i32* %136, align 4
  %138 = load i32, i32* %2, align 4
  %139 = sext i32 %138 to i64
  %140 = getelementptr inbounds [1100 x i32], [1100 x i32]* @p, i64 0, i64 %139
  store i32 %137, i32* %140, align 4
  %141 = load i32, i32* %3, align 4
  %142 = load i32, i32* %4, align 4
  %143 = sext i32 %142 to i64
  %144 = getelementptr inbounds [1100 x i32], [1100 x i32]* @p, i64 0, i64 %143
  store i32 %141, i32* %144, align 4
  br label %145

145:                                              ; preds = %129, %119
  br label %146

146:                                              ; preds = %145
  %147 = load i32, i32* %4, align 4
  %148 = add nsw i32 %147, 1
  store i32 %148, i32* %4, align 4
  br label %115

149:                                              ; preds = %115
  %150 = load i32, i32* %2, align 4
  %151 = sext i32 %150 to i64
  %152 = getelementptr inbounds [1100 x i32], [1100 x i32]* @p, i64 0, i64 %151
  %153 = load i32, i32* %152, align 4
  %154 = srem i32 %153, 20
  %155 = sext i32 %154 to i64
  %156 = getelementptr inbounds [20 x i32], [20 x i32]* @x, i64 0, i64 %155
  %157 = load i32, i32* %156, align 4
  %158 = load i32, i32* %2, align 4
  %159 = sext i32 %158 to i64
  %160 = getelementptr inbounds [1100 x i32], [1100 x i32]* @p, i64 0, i64 %159
  %161 = load i32, i32* %160, align 4
  %162 = srem i32 %161, 20
  %163 = sext i32 %162 to i64
  %164 = getelementptr inbounds [20 x i32], [20 x i32]* @y, i64 0, i64 %163
  %165 = load i32, i32* %164, align 4
  %166 = load i32, i32* %2, align 4
  %167 = sext i32 %166 to i64
  %168 = getelementptr inbounds [1100 x i32], [1100 x i32]* @p, i64 0, i64 %167
  %169 = load i32, i32* %168, align 4
  %170 = srem i32 %169, 20
  %171 = sext i32 %170 to i64
  %172 = getelementptr inbounds [20 x i32], [20 x i32]* @z, i64 0, i64 %171
  %173 = load i32, i32* %172, align 4
  %174 = load i32, i32* %2, align 4
  %175 = sext i32 %174 to i64
  %176 = getelementptr inbounds [1100 x i32], [1100 x i32]* @p, i64 0, i64 %175
  %177 = load i32, i32* %176, align 4
  %178 = srem i32 %177, 1000
  %179 = sdiv i32 %178, 20
  %180 = sext i32 %179 to i64
  %181 = getelementptr inbounds [20 x i32], [20 x i32]* @x, i64 0, i64 %180
  %182 = load i32, i32* %181, align 4
  %183 = load i32, i32* %2, align 4
  %184 = sext i32 %183 to i64
  %185 = getelementptr inbounds [1100 x i32], [1100 x i32]* @p, i64 0, i64 %184
  %186 = load i32, i32* %185, align 4
  %187 = srem i32 %186, 1000
  %188 = sdiv i32 %187, 20
  %189 = sext i32 %188 to i64
  %190 = getelementptr inbounds [20 x i32], [20 x i32]* @y, i64 0, i64 %189
  %191 = load i32, i32* %190, align 4
  %192 = load i32, i32* %2, align 4
  %193 = sext i32 %192 to i64
  %194 = getelementptr inbounds [1100 x i32], [1100 x i32]* @p, i64 0, i64 %193
  %195 = load i32, i32* %194, align 4
  %196 = srem i32 %195, 1000
  %197 = sdiv i32 %196, 20
  %198 = sext i32 %197 to i64
  %199 = getelementptr inbounds [20 x i32], [20 x i32]* @z, i64 0, i64 %198
  %200 = load i32, i32* %199, align 4
  %201 = load i32, i32* %2, align 4
  %202 = sext i32 %201 to i64
  %203 = getelementptr inbounds [1100 x i32], [1100 x i32]* @p, i64 0, i64 %202
  %204 = load i32, i32* %203, align 4
  %205 = sdiv i32 %204, 1000
  %206 = sitofp i32 %205 to double
  %207 = call double @sqrt(double %206) #3
  %208 = call i32 (i8*, ...) @printf(i8* getelementptr inbounds ([29 x i8], [29 x i8]* @.str.2, i64 0, i64 0), i32 %157, i32 %165, i32 %173, i32 %182, i32 %191, i32 %200, double %207)
  br label %209

209:                                              ; preds = %149
  %210 = load i32, i32* %2, align 4
  %211 = add nsw i32 %210, 1
  store i32 %211, i32* %2, align 4
  br label %108

212:                                              ; preds = %108
  %213 = load i32, i32* %1, align 4
  ret i32 %213
}

declare dso_local i32 @__isoc99_scanf(i8*, ...) #1

declare dso_local i32 @printf(i8*, ...) #1

; Function Attrs: nounwind
declare dso_local double @sqrt(double) #2


!llvm.module.flags = !{!0}
!llvm.ident = !{!1}

!0 = !{i32 1, !"wchar_size", i32 4}
!1 = !{!"clang version 10.0.0-4ubuntu1 "}
